
Drivers.axf:     file format elf32-littlearm


Disassembly of section .isr_vector:

08000000 <g_pfnVectors>:
 8000000:	20005000 	andcs	r5, r0, r0
 8000004:	08000c45 	stmdaeq	r0, {r0, r2, r6, sl, fp}
 8000008:	08000c95 	stmdaeq	r0, {r0, r2, r4, r7, sl, fp}
 800000c:	08000c95 	stmdaeq	r0, {r0, r2, r4, r7, sl, fp}
 8000010:	08000c95 	stmdaeq	r0, {r0, r2, r4, r7, sl, fp}
 8000014:	08000c95 	stmdaeq	r0, {r0, r2, r4, r7, sl, fp}
 8000018:	08000c95 	stmdaeq	r0, {r0, r2, r4, r7, sl, fp}
	...
 800002c:	08000a43 	stmdaeq	r0, {r0, r1, r6, r9, fp}
 8000030:	08000c95 	stmdaeq	r0, {r0, r2, r4, r7, sl, fp}
 8000034:	00000000 	andeq	r0, r0, r0
 8000038:	08000c95 	stmdaeq	r0, {r0, r2, r4, r7, sl, fp}
 800003c:	08000c95 	stmdaeq	r0, {r0, r2, r4, r7, sl, fp}
 8000040:	08000c95 	stmdaeq	r0, {r0, r2, r4, r7, sl, fp}
 8000044:	08000c95 	stmdaeq	r0, {r0, r2, r4, r7, sl, fp}
 8000048:	08000c95 	stmdaeq	r0, {r0, r2, r4, r7, sl, fp}
 800004c:	08000c95 	stmdaeq	r0, {r0, r2, r4, r7, sl, fp}
 8000050:	08000c95 	stmdaeq	r0, {r0, r2, r4, r7, sl, fp}
 8000054:	08000c95 	stmdaeq	r0, {r0, r2, r4, r7, sl, fp}
 8000058:	08000501 	stmdaeq	r0, {r0, r8, sl}
 800005c:	08000525 	stmdaeq	r0, {r0, r2, r5, r8, sl}
 8000060:	08000549 	stmdaeq	r0, {r0, r3, r6, r8, sl}
 8000064:	0800056d 	stmdaeq	r0, {r0, r2, r3, r5, r6, r8, sl}
 8000068:	08000591 	stmdaeq	r0, {r0, r4, r7, r8, sl}
 800006c:	08000c95 	stmdaeq	r0, {r0, r2, r4, r7, sl, fp}
 8000070:	08000c95 	stmdaeq	r0, {r0, r2, r4, r7, sl, fp}
 8000074:	08000c95 	stmdaeq	r0, {r0, r2, r4, r7, sl, fp}
 8000078:	08000c95 	stmdaeq	r0, {r0, r2, r4, r7, sl, fp}
 800007c:	08000c95 	stmdaeq	r0, {r0, r2, r4, r7, sl, fp}
 8000080:	08000c95 	stmdaeq	r0, {r0, r2, r4, r7, sl, fp}
 8000084:	08000c95 	stmdaeq	r0, {r0, r2, r4, r7, sl, fp}
 8000088:	08000c95 	stmdaeq	r0, {r0, r2, r4, r7, sl, fp}
 800008c:	08000c95 	stmdaeq	r0, {r0, r2, r4, r7, sl, fp}
 8000090:	08000c95 	stmdaeq	r0, {r0, r2, r4, r7, sl, fp}
 8000094:	08000c95 	stmdaeq	r0, {r0, r2, r4, r7, sl, fp}
 8000098:	08000c95 	stmdaeq	r0, {r0, r2, r4, r7, sl, fp}
 800009c:	080005b5 	stmdaeq	r0, {r0, r2, r4, r5, r7, r8, sl}
 80000a0:	08000c95 	stmdaeq	r0, {r0, r2, r4, r7, sl, fp}
 80000a4:	08000c95 	stmdaeq	r0, {r0, r2, r4, r7, sl, fp}
 80000a8:	08000c95 	stmdaeq	r0, {r0, r2, r4, r7, sl, fp}
 80000ac:	08000c95 	stmdaeq	r0, {r0, r2, r4, r7, sl, fp}
 80000b0:	08000c95 	stmdaeq	r0, {r0, r2, r4, r7, sl, fp}
 80000b4:	08000c95 	stmdaeq	r0, {r0, r2, r4, r7, sl, fp}
 80000b8:	08000c95 	stmdaeq	r0, {r0, r2, r4, r7, sl, fp}
 80000bc:	08000c95 	stmdaeq	r0, {r0, r2, r4, r7, sl, fp}
 80000c0:	08000c95 	stmdaeq	r0, {r0, r2, r4, r7, sl, fp}
 80000c4:	08000c95 	stmdaeq	r0, {r0, r2, r4, r7, sl, fp}
 80000c8:	08000c95 	stmdaeq	r0, {r0, r2, r4, r7, sl, fp}
 80000cc:	08000721 	stmdaeq	r0, {r0, r5, r8, r9, sl}
 80000d0:	0800077d 	stmdaeq	r0, {r0, r2, r3, r4, r5, r6, r8, r9, sl}
 80000d4:	080007d9 	stmdaeq	r0, {r0, r3, r4, r6, r7, r8, r9, sl}
 80000d8:	080007ed 	stmdaeq	r0, {r0, r2, r3, r5, r6, r7, r8, r9, sl}
 80000dc:	08000801 	stmdaeq	r0, {r0, fp}
 80000e0:	0800065d 	stmdaeq	r0, {r0, r2, r3, r4, r6, r9, sl}
 80000e4:	08000c95 	stmdaeq	r0, {r0, r2, r4, r7, sl, fp}
 80000e8:	00000000 	andeq	r0, r0, r0
 80000ec:	08000c95 	stmdaeq	r0, {r0, r2, r4, r7, sl, fp}
 80000f0:	08000c95 	stmdaeq	r0, {r0, r2, r4, r7, sl, fp}
 80000f4:	08000c95 	stmdaeq	r0, {r0, r2, r4, r7, sl, fp}
 80000f8:	08000c95 	stmdaeq	r0, {r0, r2, r4, r7, sl, fp}
 80000fc:	08000c95 	stmdaeq	r0, {r0, r2, r4, r7, sl, fp}
 8000100:	08000c95 	stmdaeq	r0, {r0, r2, r4, r7, sl, fp}
 8000104:	08000c95 	stmdaeq	r0, {r0, r2, r4, r7, sl, fp}
 8000108:	08000c95 	stmdaeq	r0, {r0, r2, r4, r7, sl, fp}
 800010c:	08000c95 	stmdaeq	r0, {r0, r2, r4, r7, sl, fp}
 8000110:	08000c95 	stmdaeq	r0, {r0, r2, r4, r7, sl, fp}
 8000114:	08000c95 	stmdaeq	r0, {r0, r2, r4, r7, sl, fp}
 8000118:	08000c95 	stmdaeq	r0, {r0, r2, r4, r7, sl, fp}
 800011c:	08000c95 	stmdaeq	r0, {r0, r2, r4, r7, sl, fp}
 8000120:	08000c95 	stmdaeq	r0, {r0, r2, r4, r7, sl, fp}
 8000124:	08000c95 	stmdaeq	r0, {r0, r2, r4, r7, sl, fp}
 8000128:	08000c95 	stmdaeq	r0, {r0, r2, r4, r7, sl, fp}
 800012c:	08000c95 	stmdaeq	r0, {r0, r2, r4, r7, sl, fp}

Disassembly of section .text:

08000130 <__do_global_dtors_aux>:
 8000130:	b510      	push	{r4, lr}
 8000132:	4c05      	ldr	r4, [pc, #20]	; (8000148 <__do_global_dtors_aux+0x18>)
 8000134:	7823      	ldrb	r3, [r4, #0]
 8000136:	b933      	cbnz	r3, 8000146 <__do_global_dtors_aux+0x16>
 8000138:	4b04      	ldr	r3, [pc, #16]	; (800014c <__do_global_dtors_aux+0x1c>)
 800013a:	b113      	cbz	r3, 8000142 <__do_global_dtors_aux+0x12>
 800013c:	4804      	ldr	r0, [pc, #16]	; (8000150 <__do_global_dtors_aux+0x20>)
 800013e:	f3af 8000 	nop.w
 8000142:	2301      	movs	r3, #1
 8000144:	7023      	strb	r3, [r4, #0]
 8000146:	bd10      	pop	{r4, pc}
 8000148:	20000004 	andcs	r0, r0, r4
 800014c:	00000000 	andeq	r0, r0, r0
 8000150:	08000ce0 	stmdaeq	r0, {r5, r6, r7, sl, fp}

08000154 <frame_dummy>:
 8000154:	b508      	push	{r3, lr}
 8000156:	4b03      	ldr	r3, [pc, #12]	; (8000164 <frame_dummy+0x10>)
 8000158:	b11b      	cbz	r3, 8000162 <frame_dummy+0xe>
 800015a:	4903      	ldr	r1, [pc, #12]	; (8000168 <frame_dummy+0x14>)
 800015c:	4803      	ldr	r0, [pc, #12]	; (800016c <frame_dummy+0x18>)
 800015e:	f3af 8000 	nop.w
 8000162:	bd08      	pop	{r3, pc}
 8000164:	00000000 	andeq	r0, r0, r0
 8000168:	20000008 	andcs	r0, r0, r8
 800016c:	08000ce0 	stmdaeq	r0, {r5, r6, r7, sl, fp}

08000170 <EXTI_Init>:
 8000170:	b580      	push	{r7, lr}
 8000172:	b082      	sub	sp, #8
 8000174:	af00      	add	r7, sp, #0
 8000176:	6078      	str	r0, [r7, #4]
 8000178:	6878      	ldr	r0, [r7, #4]
 800017a:	f000 f805 	bl	8000188 <Update_EXTI>
 800017e:	bf00      	nop
 8000180:	3708      	adds	r7, #8
 8000182:	46bd      	mov	sp, r7
 8000184:	bd80      	pop	{r7, pc}
	...

08000188 <Update_EXTI>:
 8000188:	b580      	push	{r7, lr}
 800018a:	b084      	sub	sp, #16
 800018c:	af00      	add	r7, sp, #0
 800018e:	6078      	str	r0, [r7, #4]
 8000190:	687b      	ldr	r3, [r7, #4]
 8000192:	891b      	ldrh	r3, [r3, #8]
 8000194:	813b      	strh	r3, [r7, #8]
 8000196:	2301      	movs	r3, #1
 8000198:	817b      	strh	r3, [r7, #10]
 800019a:	687b      	ldr	r3, [r7, #4]
 800019c:	685b      	ldr	r3, [r3, #4]
 800019e:	f107 0208 	add.w	r2, r7, #8
 80001a2:	4611      	mov	r1, r2
 80001a4:	4618      	mov	r0, r3
 80001a6:	f000 fb88 	bl	80008ba <GPIO_Init>
 80001aa:	687b      	ldr	r3, [r7, #4]
 80001ac:	881b      	ldrh	r3, [r3, #0]
 80001ae:	089b      	lsrs	r3, r3, #2
 80001b0:	b29b      	uxth	r3, r3
 80001b2:	73fb      	strb	r3, [r7, #15]
 80001b4:	687b      	ldr	r3, [r7, #4]
 80001b6:	881b      	ldrh	r3, [r3, #0]
 80001b8:	b2db      	uxtb	r3, r3
 80001ba:	f003 0303 	and.w	r3, r3, #3
 80001be:	b2db      	uxtb	r3, r3
 80001c0:	009b      	lsls	r3, r3, #2
 80001c2:	73bb      	strb	r3, [r7, #14]
 80001c4:	4a61      	ldr	r2, [pc, #388]	; (800034c <Update_EXTI+0x1c4>)
 80001c6:	7bfb      	ldrb	r3, [r7, #15]
 80001c8:	3302      	adds	r3, #2
 80001ca:	f852 2023 	ldr.w	r2, [r2, r3, lsl #2]
 80001ce:	7bbb      	ldrb	r3, [r7, #14]
 80001d0:	210f      	movs	r1, #15
 80001d2:	fa01 f303 	lsl.w	r3, r1, r3
 80001d6:	43db      	mvns	r3, r3
 80001d8:	4618      	mov	r0, r3
 80001da:	495c      	ldr	r1, [pc, #368]	; (800034c <Update_EXTI+0x1c4>)
 80001dc:	7bfb      	ldrb	r3, [r7, #15]
 80001de:	4002      	ands	r2, r0
 80001e0:	3302      	adds	r3, #2
 80001e2:	f841 2023 	str.w	r2, [r1, r3, lsl #2]
 80001e6:	4a59      	ldr	r2, [pc, #356]	; (800034c <Update_EXTI+0x1c4>)
 80001e8:	7bfb      	ldrb	r3, [r7, #15]
 80001ea:	3302      	adds	r3, #2
 80001ec:	f852 2023 	ldr.w	r2, [r2, r3, lsl #2]
 80001f0:	687b      	ldr	r3, [r7, #4]
 80001f2:	685b      	ldr	r3, [r3, #4]
 80001f4:	4956      	ldr	r1, [pc, #344]	; (8000350 <Update_EXTI+0x1c8>)
 80001f6:	428b      	cmp	r3, r1
 80001f8:	d016      	beq.n	8000228 <Update_EXTI+0xa0>
 80001fa:	687b      	ldr	r3, [r7, #4]
 80001fc:	685b      	ldr	r3, [r3, #4]
 80001fe:	4955      	ldr	r1, [pc, #340]	; (8000354 <Update_EXTI+0x1cc>)
 8000200:	428b      	cmp	r3, r1
 8000202:	d00f      	beq.n	8000224 <Update_EXTI+0x9c>
 8000204:	687b      	ldr	r3, [r7, #4]
 8000206:	685b      	ldr	r3, [r3, #4]
 8000208:	4953      	ldr	r1, [pc, #332]	; (8000358 <Update_EXTI+0x1d0>)
 800020a:	428b      	cmp	r3, r1
 800020c:	d008      	beq.n	8000220 <Update_EXTI+0x98>
 800020e:	687b      	ldr	r3, [r7, #4]
 8000210:	685b      	ldr	r3, [r3, #4]
 8000212:	4952      	ldr	r1, [pc, #328]	; (800035c <Update_EXTI+0x1d4>)
 8000214:	428b      	cmp	r3, r1
 8000216:	d101      	bne.n	800021c <Update_EXTI+0x94>
 8000218:	2303      	movs	r3, #3
 800021a:	e006      	b.n	800022a <Update_EXTI+0xa2>
 800021c:	2300      	movs	r3, #0
 800021e:	e004      	b.n	800022a <Update_EXTI+0xa2>
 8000220:	2302      	movs	r3, #2
 8000222:	e002      	b.n	800022a <Update_EXTI+0xa2>
 8000224:	2301      	movs	r3, #1
 8000226:	e000      	b.n	800022a <Update_EXTI+0xa2>
 8000228:	2300      	movs	r3, #0
 800022a:	7bb9      	ldrb	r1, [r7, #14]
 800022c:	408b      	lsls	r3, r1
 800022e:	4618      	mov	r0, r3
 8000230:	4946      	ldr	r1, [pc, #280]	; (800034c <Update_EXTI+0x1c4>)
 8000232:	7bfb      	ldrb	r3, [r7, #15]
 8000234:	4302      	orrs	r2, r0
 8000236:	3302      	adds	r3, #2
 8000238:	f841 2023 	str.w	r2, [r1, r3, lsl #2]
 800023c:	4b48      	ldr	r3, [pc, #288]	; (8000360 <Update_EXTI+0x1d8>)
 800023e:	689b      	ldr	r3, [r3, #8]
 8000240:	687a      	ldr	r2, [r7, #4]
 8000242:	8812      	ldrh	r2, [r2, #0]
 8000244:	4611      	mov	r1, r2
 8000246:	2201      	movs	r2, #1
 8000248:	408a      	lsls	r2, r1
 800024a:	43d2      	mvns	r2, r2
 800024c:	4611      	mov	r1, r2
 800024e:	4a44      	ldr	r2, [pc, #272]	; (8000360 <Update_EXTI+0x1d8>)
 8000250:	400b      	ands	r3, r1
 8000252:	6093      	str	r3, [r2, #8]
 8000254:	4b42      	ldr	r3, [pc, #264]	; (8000360 <Update_EXTI+0x1d8>)
 8000256:	68db      	ldr	r3, [r3, #12]
 8000258:	687a      	ldr	r2, [r7, #4]
 800025a:	8812      	ldrh	r2, [r2, #0]
 800025c:	4611      	mov	r1, r2
 800025e:	2201      	movs	r2, #1
 8000260:	408a      	lsls	r2, r1
 8000262:	43d2      	mvns	r2, r2
 8000264:	4611      	mov	r1, r2
 8000266:	4a3e      	ldr	r2, [pc, #248]	; (8000360 <Update_EXTI+0x1d8>)
 8000268:	400b      	ands	r3, r1
 800026a:	60d3      	str	r3, [r2, #12]
 800026c:	687b      	ldr	r3, [r7, #4]
 800026e:	7b1b      	ldrb	r3, [r3, #12]
 8000270:	2b00      	cmp	r3, #0
 8000272:	d10b      	bne.n	800028c <Update_EXTI+0x104>
 8000274:	4b3a      	ldr	r3, [pc, #232]	; (8000360 <Update_EXTI+0x1d8>)
 8000276:	689b      	ldr	r3, [r3, #8]
 8000278:	687a      	ldr	r2, [r7, #4]
 800027a:	8812      	ldrh	r2, [r2, #0]
 800027c:	4611      	mov	r1, r2
 800027e:	2201      	movs	r2, #1
 8000280:	408a      	lsls	r2, r1
 8000282:	4611      	mov	r1, r2
 8000284:	4a36      	ldr	r2, [pc, #216]	; (8000360 <Update_EXTI+0x1d8>)
 8000286:	430b      	orrs	r3, r1
 8000288:	6093      	str	r3, [r2, #8]
 800028a:	e029      	b.n	80002e0 <Update_EXTI+0x158>
 800028c:	687b      	ldr	r3, [r7, #4]
 800028e:	7b1b      	ldrb	r3, [r3, #12]
 8000290:	2b01      	cmp	r3, #1
 8000292:	d10b      	bne.n	80002ac <Update_EXTI+0x124>
 8000294:	4b32      	ldr	r3, [pc, #200]	; (8000360 <Update_EXTI+0x1d8>)
 8000296:	68db      	ldr	r3, [r3, #12]
 8000298:	687a      	ldr	r2, [r7, #4]
 800029a:	8812      	ldrh	r2, [r2, #0]
 800029c:	4611      	mov	r1, r2
 800029e:	2201      	movs	r2, #1
 80002a0:	408a      	lsls	r2, r1
 80002a2:	4611      	mov	r1, r2
 80002a4:	4a2e      	ldr	r2, [pc, #184]	; (8000360 <Update_EXTI+0x1d8>)
 80002a6:	430b      	orrs	r3, r1
 80002a8:	60d3      	str	r3, [r2, #12]
 80002aa:	e019      	b.n	80002e0 <Update_EXTI+0x158>
 80002ac:	687b      	ldr	r3, [r7, #4]
 80002ae:	7b1b      	ldrb	r3, [r3, #12]
 80002b0:	2b02      	cmp	r3, #2
 80002b2:	d115      	bne.n	80002e0 <Update_EXTI+0x158>
 80002b4:	4b2a      	ldr	r3, [pc, #168]	; (8000360 <Update_EXTI+0x1d8>)
 80002b6:	689b      	ldr	r3, [r3, #8]
 80002b8:	687a      	ldr	r2, [r7, #4]
 80002ba:	8812      	ldrh	r2, [r2, #0]
 80002bc:	4611      	mov	r1, r2
 80002be:	2201      	movs	r2, #1
 80002c0:	408a      	lsls	r2, r1
 80002c2:	4611      	mov	r1, r2
 80002c4:	4a26      	ldr	r2, [pc, #152]	; (8000360 <Update_EXTI+0x1d8>)
 80002c6:	430b      	orrs	r3, r1
 80002c8:	6093      	str	r3, [r2, #8]
 80002ca:	4b25      	ldr	r3, [pc, #148]	; (8000360 <Update_EXTI+0x1d8>)
 80002cc:	68db      	ldr	r3, [r3, #12]
 80002ce:	687a      	ldr	r2, [r7, #4]
 80002d0:	8812      	ldrh	r2, [r2, #0]
 80002d2:	4611      	mov	r1, r2
 80002d4:	2201      	movs	r2, #1
 80002d6:	408a      	lsls	r2, r1
 80002d8:	4611      	mov	r1, r2
 80002da:	4a21      	ldr	r2, [pc, #132]	; (8000360 <Update_EXTI+0x1d8>)
 80002dc:	430b      	orrs	r3, r1
 80002de:	60d3      	str	r3, [r2, #12]
 80002e0:	687b      	ldr	r3, [r7, #4]
 80002e2:	881b      	ldrh	r3, [r3, #0]
 80002e4:	4619      	mov	r1, r3
 80002e6:	687b      	ldr	r3, [r7, #4]
 80002e8:	691b      	ldr	r3, [r3, #16]
 80002ea:	4a1e      	ldr	r2, [pc, #120]	; (8000364 <Update_EXTI+0x1dc>)
 80002ec:	f842 3021 	str.w	r3, [r2, r1, lsl #2]
 80002f0:	687b      	ldr	r3, [r7, #4]
 80002f2:	7b5b      	ldrb	r3, [r3, #13]
 80002f4:	2b01      	cmp	r3, #1
 80002f6:	d110      	bne.n	800031a <Update_EXTI+0x192>
 80002f8:	4b19      	ldr	r3, [pc, #100]	; (8000360 <Update_EXTI+0x1d8>)
 80002fa:	681b      	ldr	r3, [r3, #0]
 80002fc:	687a      	ldr	r2, [r7, #4]
 80002fe:	8812      	ldrh	r2, [r2, #0]
 8000300:	4611      	mov	r1, r2
 8000302:	2201      	movs	r2, #1
 8000304:	408a      	lsls	r2, r1
 8000306:	4611      	mov	r1, r2
 8000308:	4a15      	ldr	r2, [pc, #84]	; (8000360 <Update_EXTI+0x1d8>)
 800030a:	430b      	orrs	r3, r1
 800030c:	6013      	str	r3, [r2, #0]
 800030e:	687b      	ldr	r3, [r7, #4]
 8000310:	881b      	ldrh	r3, [r3, #0]
 8000312:	4618      	mov	r0, r3
 8000314:	f000 f828 	bl	8000368 <Enable_NVIC>
 8000318:	e013      	b.n	8000342 <Update_EXTI+0x1ba>
 800031a:	687b      	ldr	r3, [r7, #4]
 800031c:	7b5b      	ldrb	r3, [r3, #13]
 800031e:	2b00      	cmp	r3, #0
 8000320:	d10f      	bne.n	8000342 <Update_EXTI+0x1ba>
 8000322:	4b0f      	ldr	r3, [pc, #60]	; (8000360 <Update_EXTI+0x1d8>)
 8000324:	681b      	ldr	r3, [r3, #0]
 8000326:	687a      	ldr	r2, [r7, #4]
 8000328:	8812      	ldrh	r2, [r2, #0]
 800032a:	4611      	mov	r1, r2
 800032c:	2201      	movs	r2, #1
 800032e:	408a      	lsls	r2, r1
 8000330:	4611      	mov	r1, r2
 8000332:	4a0b      	ldr	r2, [pc, #44]	; (8000360 <Update_EXTI+0x1d8>)
 8000334:	430b      	orrs	r3, r1
 8000336:	6013      	str	r3, [r2, #0]
 8000338:	687b      	ldr	r3, [r7, #4]
 800033a:	881b      	ldrh	r3, [r3, #0]
 800033c:	4618      	mov	r0, r3
 800033e:	f000 f879 	bl	8000434 <Disable_NVIC>
 8000342:	bf00      	nop
 8000344:	3710      	adds	r7, #16
 8000346:	46bd      	mov	sp, r7
 8000348:	bd80      	pop	{r7, pc}
 800034a:	bf00      	nop
 800034c:	40010000 	andmi	r0, r1, r0
 8000350:	40010800 	andmi	r0, r1, r0, lsl #16
 8000354:	40010c00 	andmi	r0, r1, r0, lsl #24
 8000358:	40011000 	andmi	r1, r1, r0
 800035c:	40011400 	andmi	r1, r1, r0, lsl #8
 8000360:	40010400 	andmi	r0, r1, r0, lsl #8
 8000364:	20000030 	andcs	r0, r0, r0, lsr r0

08000368 <Enable_NVIC>:
 8000368:	b480      	push	{r7}
 800036a:	b083      	sub	sp, #12
 800036c:	af00      	add	r7, sp, #0
 800036e:	4603      	mov	r3, r0
 8000370:	80fb      	strh	r3, [r7, #6]
 8000372:	88fb      	ldrh	r3, [r7, #6]
 8000374:	2b0f      	cmp	r3, #15
 8000376:	d854      	bhi.n	8000422 <Enable_NVIC+0xba>
 8000378:	a201      	add	r2, pc, #4	; (adr r2, 8000380 <Enable_NVIC+0x18>)
 800037a:	f852 f023 	ldr.w	pc, [r2, r3, lsl #2]
 800037e:	bf00      	nop
 8000380:	080003c1 	stmdaeq	r0, {r0, r6, r7, r8, r9}
 8000384:	080003cf 	stmdaeq	r0, {r0, r1, r2, r3, r6, r7, r8, r9}
 8000388:	080003dd 	stmdaeq	r0, {r0, r2, r3, r4, r6, r7, r8, r9}
 800038c:	080003eb 	stmdaeq	r0, {r0, r1, r3, r5, r6, r7, r8, r9}
 8000390:	080003f9 	stmdaeq	r0, {r0, r3, r4, r5, r6, r7, r8, r9}
 8000394:	08000407 	stmdaeq	r0, {r0, r1, r2, sl}
 8000398:	08000407 	stmdaeq	r0, {r0, r1, r2, sl}
 800039c:	08000407 	stmdaeq	r0, {r0, r1, r2, sl}
 80003a0:	08000407 	stmdaeq	r0, {r0, r1, r2, sl}
 80003a4:	08000407 	stmdaeq	r0, {r0, r1, r2, sl}
 80003a8:	08000415 	stmdaeq	r0, {r0, r2, r4, sl}
 80003ac:	08000415 	stmdaeq	r0, {r0, r2, r4, sl}
 80003b0:	08000415 	stmdaeq	r0, {r0, r2, r4, sl}
 80003b4:	08000415 	stmdaeq	r0, {r0, r2, r4, sl}
 80003b8:	08000415 	stmdaeq	r0, {r0, r2, r4, sl}
 80003bc:	08000415 	stmdaeq	r0, {r0, r2, r4, sl}
 80003c0:	4b1a      	ldr	r3, [pc, #104]	; (800042c <Enable_NVIC+0xc4>)
 80003c2:	681b      	ldr	r3, [r3, #0]
 80003c4:	4a19      	ldr	r2, [pc, #100]	; (800042c <Enable_NVIC+0xc4>)
 80003c6:	f043 0340 	orr.w	r3, r3, #64	; 0x40
 80003ca:	6013      	str	r3, [r2, #0]
 80003cc:	e029      	b.n	8000422 <Enable_NVIC+0xba>
 80003ce:	4b17      	ldr	r3, [pc, #92]	; (800042c <Enable_NVIC+0xc4>)
 80003d0:	681b      	ldr	r3, [r3, #0]
 80003d2:	4a16      	ldr	r2, [pc, #88]	; (800042c <Enable_NVIC+0xc4>)
 80003d4:	f043 0380 	orr.w	r3, r3, #128	; 0x80
 80003d8:	6013      	str	r3, [r2, #0]
 80003da:	e022      	b.n	8000422 <Enable_NVIC+0xba>
 80003dc:	4b13      	ldr	r3, [pc, #76]	; (800042c <Enable_NVIC+0xc4>)
 80003de:	681b      	ldr	r3, [r3, #0]
 80003e0:	4a12      	ldr	r2, [pc, #72]	; (800042c <Enable_NVIC+0xc4>)
 80003e2:	f443 7380 	orr.w	r3, r3, #256	; 0x100
 80003e6:	6013      	str	r3, [r2, #0]
 80003e8:	e01b      	b.n	8000422 <Enable_NVIC+0xba>
 80003ea:	4b10      	ldr	r3, [pc, #64]	; (800042c <Enable_NVIC+0xc4>)
 80003ec:	681b      	ldr	r3, [r3, #0]
 80003ee:	4a0f      	ldr	r2, [pc, #60]	; (800042c <Enable_NVIC+0xc4>)
 80003f0:	f443 7300 	orr.w	r3, r3, #512	; 0x200
 80003f4:	6013      	str	r3, [r2, #0]
 80003f6:	e014      	b.n	8000422 <Enable_NVIC+0xba>
 80003f8:	4b0c      	ldr	r3, [pc, #48]	; (800042c <Enable_NVIC+0xc4>)
 80003fa:	681b      	ldr	r3, [r3, #0]
 80003fc:	4a0b      	ldr	r2, [pc, #44]	; (800042c <Enable_NVIC+0xc4>)
 80003fe:	f443 6380 	orr.w	r3, r3, #1024	; 0x400
 8000402:	6013      	str	r3, [r2, #0]
 8000404:	e00d      	b.n	8000422 <Enable_NVIC+0xba>
 8000406:	4b09      	ldr	r3, [pc, #36]	; (800042c <Enable_NVIC+0xc4>)
 8000408:	681b      	ldr	r3, [r3, #0]
 800040a:	4a08      	ldr	r2, [pc, #32]	; (800042c <Enable_NVIC+0xc4>)
 800040c:	f443 0300 	orr.w	r3, r3, #8388608	; 0x800000
 8000410:	6013      	str	r3, [r2, #0]
 8000412:	e006      	b.n	8000422 <Enable_NVIC+0xba>
 8000414:	4b06      	ldr	r3, [pc, #24]	; (8000430 <Enable_NVIC+0xc8>)
 8000416:	681b      	ldr	r3, [r3, #0]
 8000418:	4a05      	ldr	r2, [pc, #20]	; (8000430 <Enable_NVIC+0xc8>)
 800041a:	f443 7380 	orr.w	r3, r3, #256	; 0x100
 800041e:	6013      	str	r3, [r2, #0]
 8000420:	bf00      	nop
 8000422:	bf00      	nop
 8000424:	370c      	adds	r7, #12
 8000426:	46bd      	mov	sp, r7
 8000428:	bc80      	pop	{r7}
 800042a:	4770      	bx	lr
 800042c:	e000e100 	and	lr, r0, r0, lsl #2
 8000430:	e000e104 	and	lr, r0, r4, lsl #2

08000434 <Disable_NVIC>:
 8000434:	b480      	push	{r7}
 8000436:	b083      	sub	sp, #12
 8000438:	af00      	add	r7, sp, #0
 800043a:	4603      	mov	r3, r0
 800043c:	80fb      	strh	r3, [r7, #6]
 800043e:	88fb      	ldrh	r3, [r7, #6]
 8000440:	2b0f      	cmp	r3, #15
 8000442:	d854      	bhi.n	80004ee <Disable_NVIC+0xba>
 8000444:	a201      	add	r2, pc, #4	; (adr r2, 800044c <Disable_NVIC+0x18>)
 8000446:	f852 f023 	ldr.w	pc, [r2, r3, lsl #2]
 800044a:	bf00      	nop
 800044c:	0800048d 	stmdaeq	r0, {r0, r2, r3, r7, sl}
 8000450:	0800049b 	stmdaeq	r0, {r0, r1, r3, r4, r7, sl}
 8000454:	080004a9 	stmdaeq	r0, {r0, r3, r5, r7, sl}
 8000458:	080004b7 	stmdaeq	r0, {r0, r1, r2, r4, r5, r7, sl}
 800045c:	080004c5 	stmdaeq	r0, {r0, r2, r6, r7, sl}
 8000460:	080004d3 	stmdaeq	r0, {r0, r1, r4, r6, r7, sl}
 8000464:	080004d3 	stmdaeq	r0, {r0, r1, r4, r6, r7, sl}
 8000468:	080004d3 	stmdaeq	r0, {r0, r1, r4, r6, r7, sl}
 800046c:	080004d3 	stmdaeq	r0, {r0, r1, r4, r6, r7, sl}
 8000470:	080004d3 	stmdaeq	r0, {r0, r1, r4, r6, r7, sl}
 8000474:	080004e1 	stmdaeq	r0, {r0, r5, r6, r7, sl}
 8000478:	080004e1 	stmdaeq	r0, {r0, r5, r6, r7, sl}
 800047c:	080004e1 	stmdaeq	r0, {r0, r5, r6, r7, sl}
 8000480:	080004e1 	stmdaeq	r0, {r0, r5, r6, r7, sl}
 8000484:	080004e1 	stmdaeq	r0, {r0, r5, r6, r7, sl}
 8000488:	080004e1 	stmdaeq	r0, {r0, r5, r6, r7, sl}
 800048c:	4b1a      	ldr	r3, [pc, #104]	; (80004f8 <Disable_NVIC+0xc4>)
 800048e:	681b      	ldr	r3, [r3, #0]
 8000490:	4a19      	ldr	r2, [pc, #100]	; (80004f8 <Disable_NVIC+0xc4>)
 8000492:	f043 0340 	orr.w	r3, r3, #64	; 0x40
 8000496:	6013      	str	r3, [r2, #0]
 8000498:	e029      	b.n	80004ee <Disable_NVIC+0xba>
 800049a:	4b17      	ldr	r3, [pc, #92]	; (80004f8 <Disable_NVIC+0xc4>)
 800049c:	681b      	ldr	r3, [r3, #0]
 800049e:	4a16      	ldr	r2, [pc, #88]	; (80004f8 <Disable_NVIC+0xc4>)
 80004a0:	f043 0380 	orr.w	r3, r3, #128	; 0x80
 80004a4:	6013      	str	r3, [r2, #0]
 80004a6:	e022      	b.n	80004ee <Disable_NVIC+0xba>
 80004a8:	4b13      	ldr	r3, [pc, #76]	; (80004f8 <Disable_NVIC+0xc4>)
 80004aa:	681b      	ldr	r3, [r3, #0]
 80004ac:	4a12      	ldr	r2, [pc, #72]	; (80004f8 <Disable_NVIC+0xc4>)
 80004ae:	f443 7380 	orr.w	r3, r3, #256	; 0x100
 80004b2:	6013      	str	r3, [r2, #0]
 80004b4:	e01b      	b.n	80004ee <Disable_NVIC+0xba>
 80004b6:	4b10      	ldr	r3, [pc, #64]	; (80004f8 <Disable_NVIC+0xc4>)
 80004b8:	681b      	ldr	r3, [r3, #0]
 80004ba:	4a0f      	ldr	r2, [pc, #60]	; (80004f8 <Disable_NVIC+0xc4>)
 80004bc:	f443 7300 	orr.w	r3, r3, #512	; 0x200
 80004c0:	6013      	str	r3, [r2, #0]
 80004c2:	e014      	b.n	80004ee <Disable_NVIC+0xba>
 80004c4:	4b0c      	ldr	r3, [pc, #48]	; (80004f8 <Disable_NVIC+0xc4>)
 80004c6:	681b      	ldr	r3, [r3, #0]
 80004c8:	4a0b      	ldr	r2, [pc, #44]	; (80004f8 <Disable_NVIC+0xc4>)
 80004ca:	f443 6380 	orr.w	r3, r3, #1024	; 0x400
 80004ce:	6013      	str	r3, [r2, #0]
 80004d0:	e00d      	b.n	80004ee <Disable_NVIC+0xba>
 80004d2:	4b09      	ldr	r3, [pc, #36]	; (80004f8 <Disable_NVIC+0xc4>)
 80004d4:	681b      	ldr	r3, [r3, #0]
 80004d6:	4a08      	ldr	r2, [pc, #32]	; (80004f8 <Disable_NVIC+0xc4>)
 80004d8:	f443 0300 	orr.w	r3, r3, #8388608	; 0x800000
 80004dc:	6013      	str	r3, [r2, #0]
 80004de:	e006      	b.n	80004ee <Disable_NVIC+0xba>
 80004e0:	4b06      	ldr	r3, [pc, #24]	; (80004fc <Disable_NVIC+0xc8>)
 80004e2:	681b      	ldr	r3, [r3, #0]
 80004e4:	4a05      	ldr	r2, [pc, #20]	; (80004fc <Disable_NVIC+0xc8>)
 80004e6:	f443 7380 	orr.w	r3, r3, #256	; 0x100
 80004ea:	6013      	str	r3, [r2, #0]
 80004ec:	bf00      	nop
 80004ee:	bf00      	nop
 80004f0:	370c      	adds	r7, #12
 80004f2:	46bd      	mov	sp, r7
 80004f4:	bc80      	pop	{r7}
 80004f6:	4770      	bx	lr
 80004f8:	e000e180 	and	lr, r0, r0, lsl #3
 80004fc:	e000e184 	and	lr, r0, r4, lsl #3

08000500 <EXTI0_IRQHandler>:
 8000500:	b580      	push	{r7, lr}
 8000502:	af00      	add	r7, sp, #0
 8000504:	4b05      	ldr	r3, [pc, #20]	; (800051c <EXTI0_IRQHandler+0x1c>)
 8000506:	695b      	ldr	r3, [r3, #20]
 8000508:	4a04      	ldr	r2, [pc, #16]	; (800051c <EXTI0_IRQHandler+0x1c>)
 800050a:	f043 0301 	orr.w	r3, r3, #1
 800050e:	6153      	str	r3, [r2, #20]
 8000510:	4b03      	ldr	r3, [pc, #12]	; (8000520 <EXTI0_IRQHandler+0x20>)
 8000512:	681b      	ldr	r3, [r3, #0]
 8000514:	4798      	blx	r3
 8000516:	bf00      	nop
 8000518:	bd80      	pop	{r7, pc}
 800051a:	bf00      	nop
 800051c:	40010400 	andmi	r0, r1, r0, lsl #8
 8000520:	20000030 	andcs	r0, r0, r0, lsr r0

08000524 <EXTI1_IRQHandler>:
 8000524:	b580      	push	{r7, lr}
 8000526:	af00      	add	r7, sp, #0
 8000528:	4b05      	ldr	r3, [pc, #20]	; (8000540 <EXTI1_IRQHandler+0x1c>)
 800052a:	695b      	ldr	r3, [r3, #20]
 800052c:	4a04      	ldr	r2, [pc, #16]	; (8000540 <EXTI1_IRQHandler+0x1c>)
 800052e:	f043 0302 	orr.w	r3, r3, #2
 8000532:	6153      	str	r3, [r2, #20]
 8000534:	4b03      	ldr	r3, [pc, #12]	; (8000544 <EXTI1_IRQHandler+0x20>)
 8000536:	685b      	ldr	r3, [r3, #4]
 8000538:	4798      	blx	r3
 800053a:	bf00      	nop
 800053c:	bd80      	pop	{r7, pc}
 800053e:	bf00      	nop
 8000540:	40010400 	andmi	r0, r1, r0, lsl #8
 8000544:	20000030 	andcs	r0, r0, r0, lsr r0

08000548 <EXTI2_IRQHandler>:
 8000548:	b580      	push	{r7, lr}
 800054a:	af00      	add	r7, sp, #0
 800054c:	4b05      	ldr	r3, [pc, #20]	; (8000564 <EXTI2_IRQHandler+0x1c>)
 800054e:	695b      	ldr	r3, [r3, #20]
 8000550:	4a04      	ldr	r2, [pc, #16]	; (8000564 <EXTI2_IRQHandler+0x1c>)
 8000552:	f043 0304 	orr.w	r3, r3, #4
 8000556:	6153      	str	r3, [r2, #20]
 8000558:	4b03      	ldr	r3, [pc, #12]	; (8000568 <EXTI2_IRQHandler+0x20>)
 800055a:	689b      	ldr	r3, [r3, #8]
 800055c:	4798      	blx	r3
 800055e:	bf00      	nop
 8000560:	bd80      	pop	{r7, pc}
 8000562:	bf00      	nop
 8000564:	40010400 	andmi	r0, r1, r0, lsl #8
 8000568:	20000030 	andcs	r0, r0, r0, lsr r0

0800056c <EXTI3_IRQHandler>:
 800056c:	b580      	push	{r7, lr}
 800056e:	af00      	add	r7, sp, #0
 8000570:	4b05      	ldr	r3, [pc, #20]	; (8000588 <EXTI3_IRQHandler+0x1c>)
 8000572:	695b      	ldr	r3, [r3, #20]
 8000574:	4a04      	ldr	r2, [pc, #16]	; (8000588 <EXTI3_IRQHandler+0x1c>)
 8000576:	f043 0308 	orr.w	r3, r3, #8
 800057a:	6153      	str	r3, [r2, #20]
 800057c:	4b03      	ldr	r3, [pc, #12]	; (800058c <EXTI3_IRQHandler+0x20>)
 800057e:	68db      	ldr	r3, [r3, #12]
 8000580:	4798      	blx	r3
 8000582:	bf00      	nop
 8000584:	bd80      	pop	{r7, pc}
 8000586:	bf00      	nop
 8000588:	40010400 	andmi	r0, r1, r0, lsl #8
 800058c:	20000030 	andcs	r0, r0, r0, lsr r0

08000590 <EXTI4_IRQHandler>:
 8000590:	b580      	push	{r7, lr}
 8000592:	af00      	add	r7, sp, #0
 8000594:	4b05      	ldr	r3, [pc, #20]	; (80005ac <EXTI4_IRQHandler+0x1c>)
 8000596:	695b      	ldr	r3, [r3, #20]
 8000598:	4a04      	ldr	r2, [pc, #16]	; (80005ac <EXTI4_IRQHandler+0x1c>)
 800059a:	f043 0310 	orr.w	r3, r3, #16
 800059e:	6153      	str	r3, [r2, #20]
 80005a0:	4b03      	ldr	r3, [pc, #12]	; (80005b0 <EXTI4_IRQHandler+0x20>)
 80005a2:	691b      	ldr	r3, [r3, #16]
 80005a4:	4798      	blx	r3
 80005a6:	bf00      	nop
 80005a8:	bd80      	pop	{r7, pc}
 80005aa:	bf00      	nop
 80005ac:	40010400 	andmi	r0, r1, r0, lsl #8
 80005b0:	20000030 	andcs	r0, r0, r0, lsr r0

080005b4 <EXTI9_5_IRQHandler>:
 80005b4:	b580      	push	{r7, lr}
 80005b6:	af00      	add	r7, sp, #0
 80005b8:	4b26      	ldr	r3, [pc, #152]	; (8000654 <EXTI9_5_IRQHandler+0xa0>)
 80005ba:	695b      	ldr	r3, [r3, #20]
 80005bc:	f003 0320 	and.w	r3, r3, #32
 80005c0:	2b00      	cmp	r3, #0
 80005c2:	d008      	beq.n	80005d6 <EXTI9_5_IRQHandler+0x22>
 80005c4:	4b23      	ldr	r3, [pc, #140]	; (8000654 <EXTI9_5_IRQHandler+0xa0>)
 80005c6:	695b      	ldr	r3, [r3, #20]
 80005c8:	4a22      	ldr	r2, [pc, #136]	; (8000654 <EXTI9_5_IRQHandler+0xa0>)
 80005ca:	f043 0320 	orr.w	r3, r3, #32
 80005ce:	6153      	str	r3, [r2, #20]
 80005d0:	4b21      	ldr	r3, [pc, #132]	; (8000658 <EXTI9_5_IRQHandler+0xa4>)
 80005d2:	695b      	ldr	r3, [r3, #20]
 80005d4:	4798      	blx	r3
 80005d6:	4b1f      	ldr	r3, [pc, #124]	; (8000654 <EXTI9_5_IRQHandler+0xa0>)
 80005d8:	695b      	ldr	r3, [r3, #20]
 80005da:	f003 0340 	and.w	r3, r3, #64	; 0x40
 80005de:	2b00      	cmp	r3, #0
 80005e0:	d008      	beq.n	80005f4 <EXTI9_5_IRQHandler+0x40>
 80005e2:	4b1c      	ldr	r3, [pc, #112]	; (8000654 <EXTI9_5_IRQHandler+0xa0>)
 80005e4:	695b      	ldr	r3, [r3, #20]
 80005e6:	4a1b      	ldr	r2, [pc, #108]	; (8000654 <EXTI9_5_IRQHandler+0xa0>)
 80005e8:	f043 0340 	orr.w	r3, r3, #64	; 0x40
 80005ec:	6153      	str	r3, [r2, #20]
 80005ee:	4b1a      	ldr	r3, [pc, #104]	; (8000658 <EXTI9_5_IRQHandler+0xa4>)
 80005f0:	699b      	ldr	r3, [r3, #24]
 80005f2:	4798      	blx	r3
 80005f4:	4b17      	ldr	r3, [pc, #92]	; (8000654 <EXTI9_5_IRQHandler+0xa0>)
 80005f6:	695b      	ldr	r3, [r3, #20]
 80005f8:	f003 0380 	and.w	r3, r3, #128	; 0x80
 80005fc:	2b00      	cmp	r3, #0
 80005fe:	d008      	beq.n	8000612 <EXTI9_5_IRQHandler+0x5e>
 8000600:	4b14      	ldr	r3, [pc, #80]	; (8000654 <EXTI9_5_IRQHandler+0xa0>)
 8000602:	695b      	ldr	r3, [r3, #20]
 8000604:	4a13      	ldr	r2, [pc, #76]	; (8000654 <EXTI9_5_IRQHandler+0xa0>)
 8000606:	f043 0380 	orr.w	r3, r3, #128	; 0x80
 800060a:	6153      	str	r3, [r2, #20]
 800060c:	4b12      	ldr	r3, [pc, #72]	; (8000658 <EXTI9_5_IRQHandler+0xa4>)
 800060e:	69db      	ldr	r3, [r3, #28]
 8000610:	4798      	blx	r3
 8000612:	4b10      	ldr	r3, [pc, #64]	; (8000654 <EXTI9_5_IRQHandler+0xa0>)
 8000614:	695b      	ldr	r3, [r3, #20]
 8000616:	f403 7380 	and.w	r3, r3, #256	; 0x100
 800061a:	2b00      	cmp	r3, #0
 800061c:	d008      	beq.n	8000630 <EXTI9_5_IRQHandler+0x7c>
 800061e:	4b0d      	ldr	r3, [pc, #52]	; (8000654 <EXTI9_5_IRQHandler+0xa0>)
 8000620:	695b      	ldr	r3, [r3, #20]
 8000622:	4a0c      	ldr	r2, [pc, #48]	; (8000654 <EXTI9_5_IRQHandler+0xa0>)
 8000624:	f443 7380 	orr.w	r3, r3, #256	; 0x100
 8000628:	6153      	str	r3, [r2, #20]
 800062a:	4b0b      	ldr	r3, [pc, #44]	; (8000658 <EXTI9_5_IRQHandler+0xa4>)
 800062c:	6a1b      	ldr	r3, [r3, #32]
 800062e:	4798      	blx	r3
 8000630:	4b08      	ldr	r3, [pc, #32]	; (8000654 <EXTI9_5_IRQHandler+0xa0>)
 8000632:	695b      	ldr	r3, [r3, #20]
 8000634:	f403 7300 	and.w	r3, r3, #512	; 0x200
 8000638:	2b00      	cmp	r3, #0
 800063a:	d008      	beq.n	800064e <EXTI9_5_IRQHandler+0x9a>
 800063c:	4b05      	ldr	r3, [pc, #20]	; (8000654 <EXTI9_5_IRQHandler+0xa0>)
 800063e:	695b      	ldr	r3, [r3, #20]
 8000640:	4a04      	ldr	r2, [pc, #16]	; (8000654 <EXTI9_5_IRQHandler+0xa0>)
 8000642:	f443 7300 	orr.w	r3, r3, #512	; 0x200
 8000646:	6153      	str	r3, [r2, #20]
 8000648:	4b03      	ldr	r3, [pc, #12]	; (8000658 <EXTI9_5_IRQHandler+0xa4>)
 800064a:	6a5b      	ldr	r3, [r3, #36]	; 0x24
 800064c:	4798      	blx	r3
 800064e:	bf00      	nop
 8000650:	bd80      	pop	{r7, pc}
 8000652:	bf00      	nop
 8000654:	40010400 	andmi	r0, r1, r0, lsl #8
 8000658:	20000030 	andcs	r0, r0, r0, lsr r0

0800065c <EXTI15_10_IRQHandler>:
 800065c:	b580      	push	{r7, lr}
 800065e:	af00      	add	r7, sp, #0
 8000660:	4b2d      	ldr	r3, [pc, #180]	; (8000718 <EXTI15_10_IRQHandler+0xbc>)
 8000662:	695b      	ldr	r3, [r3, #20]
 8000664:	f403 6380 	and.w	r3, r3, #1024	; 0x400
 8000668:	2b00      	cmp	r3, #0
 800066a:	d008      	beq.n	800067e <EXTI15_10_IRQHandler+0x22>
 800066c:	4b2a      	ldr	r3, [pc, #168]	; (8000718 <EXTI15_10_IRQHandler+0xbc>)
 800066e:	695b      	ldr	r3, [r3, #20]
 8000670:	4a29      	ldr	r2, [pc, #164]	; (8000718 <EXTI15_10_IRQHandler+0xbc>)
 8000672:	f443 6380 	orr.w	r3, r3, #1024	; 0x400
 8000676:	6153      	str	r3, [r2, #20]
 8000678:	4b28      	ldr	r3, [pc, #160]	; (800071c <EXTI15_10_IRQHandler+0xc0>)
 800067a:	6a9b      	ldr	r3, [r3, #40]	; 0x28
 800067c:	4798      	blx	r3
 800067e:	4b26      	ldr	r3, [pc, #152]	; (8000718 <EXTI15_10_IRQHandler+0xbc>)
 8000680:	695b      	ldr	r3, [r3, #20]
 8000682:	f403 6300 	and.w	r3, r3, #2048	; 0x800
 8000686:	2b00      	cmp	r3, #0
 8000688:	d008      	beq.n	800069c <EXTI15_10_IRQHandler+0x40>
 800068a:	4b23      	ldr	r3, [pc, #140]	; (8000718 <EXTI15_10_IRQHandler+0xbc>)
 800068c:	695b      	ldr	r3, [r3, #20]
 800068e:	4a22      	ldr	r2, [pc, #136]	; (8000718 <EXTI15_10_IRQHandler+0xbc>)
 8000690:	f443 6300 	orr.w	r3, r3, #2048	; 0x800
 8000694:	6153      	str	r3, [r2, #20]
 8000696:	4b21      	ldr	r3, [pc, #132]	; (800071c <EXTI15_10_IRQHandler+0xc0>)
 8000698:	6adb      	ldr	r3, [r3, #44]	; 0x2c
 800069a:	4798      	blx	r3
 800069c:	4b1e      	ldr	r3, [pc, #120]	; (8000718 <EXTI15_10_IRQHandler+0xbc>)
 800069e:	695b      	ldr	r3, [r3, #20]
 80006a0:	f403 5380 	and.w	r3, r3, #4096	; 0x1000
 80006a4:	2b00      	cmp	r3, #0
 80006a6:	d008      	beq.n	80006ba <EXTI15_10_IRQHandler+0x5e>
 80006a8:	4b1b      	ldr	r3, [pc, #108]	; (8000718 <EXTI15_10_IRQHandler+0xbc>)
 80006aa:	695b      	ldr	r3, [r3, #20]
 80006ac:	4a1a      	ldr	r2, [pc, #104]	; (8000718 <EXTI15_10_IRQHandler+0xbc>)
 80006ae:	f443 5380 	orr.w	r3, r3, #4096	; 0x1000
 80006b2:	6153      	str	r3, [r2, #20]
 80006b4:	4b19      	ldr	r3, [pc, #100]	; (800071c <EXTI15_10_IRQHandler+0xc0>)
 80006b6:	6b1b      	ldr	r3, [r3, #48]	; 0x30
 80006b8:	4798      	blx	r3
 80006ba:	4b17      	ldr	r3, [pc, #92]	; (8000718 <EXTI15_10_IRQHandler+0xbc>)
 80006bc:	695b      	ldr	r3, [r3, #20]
 80006be:	f403 5300 	and.w	r3, r3, #8192	; 0x2000
 80006c2:	2b00      	cmp	r3, #0
 80006c4:	d008      	beq.n	80006d8 <EXTI15_10_IRQHandler+0x7c>
 80006c6:	4b14      	ldr	r3, [pc, #80]	; (8000718 <EXTI15_10_IRQHandler+0xbc>)
 80006c8:	695b      	ldr	r3, [r3, #20]
 80006ca:	4a13      	ldr	r2, [pc, #76]	; (8000718 <EXTI15_10_IRQHandler+0xbc>)
 80006cc:	f443 5300 	orr.w	r3, r3, #8192	; 0x2000
 80006d0:	6153      	str	r3, [r2, #20]
 80006d2:	4b12      	ldr	r3, [pc, #72]	; (800071c <EXTI15_10_IRQHandler+0xc0>)
 80006d4:	6b5b      	ldr	r3, [r3, #52]	; 0x34
 80006d6:	4798      	blx	r3
 80006d8:	4b0f      	ldr	r3, [pc, #60]	; (8000718 <EXTI15_10_IRQHandler+0xbc>)
 80006da:	695b      	ldr	r3, [r3, #20]
 80006dc:	f403 4380 	and.w	r3, r3, #16384	; 0x4000
 80006e0:	2b00      	cmp	r3, #0
 80006e2:	d008      	beq.n	80006f6 <EXTI15_10_IRQHandler+0x9a>
 80006e4:	4b0c      	ldr	r3, [pc, #48]	; (8000718 <EXTI15_10_IRQHandler+0xbc>)
 80006e6:	695b      	ldr	r3, [r3, #20]
 80006e8:	4a0b      	ldr	r2, [pc, #44]	; (8000718 <EXTI15_10_IRQHandler+0xbc>)
 80006ea:	f443 4380 	orr.w	r3, r3, #16384	; 0x4000
 80006ee:	6153      	str	r3, [r2, #20]
 80006f0:	4b0a      	ldr	r3, [pc, #40]	; (800071c <EXTI15_10_IRQHandler+0xc0>)
 80006f2:	6b9b      	ldr	r3, [r3, #56]	; 0x38
 80006f4:	4798      	blx	r3
 80006f6:	4b08      	ldr	r3, [pc, #32]	; (8000718 <EXTI15_10_IRQHandler+0xbc>)
 80006f8:	695b      	ldr	r3, [r3, #20]
 80006fa:	f403 4300 	and.w	r3, r3, #32768	; 0x8000
 80006fe:	2b00      	cmp	r3, #0
 8000700:	d008      	beq.n	8000714 <EXTI15_10_IRQHandler+0xb8>
 8000702:	4b05      	ldr	r3, [pc, #20]	; (8000718 <EXTI15_10_IRQHandler+0xbc>)
 8000704:	695b      	ldr	r3, [r3, #20]
 8000706:	4a04      	ldr	r2, [pc, #16]	; (8000718 <EXTI15_10_IRQHandler+0xbc>)
 8000708:	f443 4300 	orr.w	r3, r3, #32768	; 0x8000
 800070c:	6153      	str	r3, [r2, #20]
 800070e:	4b03      	ldr	r3, [pc, #12]	; (800071c <EXTI15_10_IRQHandler+0xc0>)
 8000710:	6bdb      	ldr	r3, [r3, #60]	; 0x3c
 8000712:	4798      	blx	r3
 8000714:	bf00      	nop
 8000716:	bd80      	pop	{r7, pc}
 8000718:	40010400 	andmi	r0, r1, r0, lsl #8
 800071c:	20000030 	andcs	r0, r0, r0, lsr r0

08000720 <SPI1_IRQHandler>:
 8000720:	b580      	push	{r7, lr}
 8000722:	b082      	sub	sp, #8
 8000724:	af00      	add	r7, sp, #0
 8000726:	4b13      	ldr	r3, [pc, #76]	; (8000774 <SPI1_IRQHandler+0x54>)
 8000728:	689b      	ldr	r3, [r3, #8]
 800072a:	085b      	lsrs	r3, r3, #1
 800072c:	f003 0301 	and.w	r3, r3, #1
 8000730:	b2da      	uxtb	r2, r3
 8000732:	793b      	ldrb	r3, [r7, #4]
 8000734:	f362 0300 	bfi	r3, r2, #0, #1
 8000738:	713b      	strb	r3, [r7, #4]
 800073a:	4b0e      	ldr	r3, [pc, #56]	; (8000774 <SPI1_IRQHandler+0x54>)
 800073c:	689b      	ldr	r3, [r3, #8]
 800073e:	f003 0301 	and.w	r3, r3, #1
 8000742:	b2da      	uxtb	r2, r3
 8000744:	793b      	ldrb	r3, [r7, #4]
 8000746:	f362 0341 	bfi	r3, r2, #1, #1
 800074a:	713b      	strb	r3, [r7, #4]
 800074c:	4b09      	ldr	r3, [pc, #36]	; (8000774 <SPI1_IRQHandler+0x54>)
 800074e:	689b      	ldr	r3, [r3, #8]
 8000750:	091b      	lsrs	r3, r3, #4
 8000752:	f003 0301 	and.w	r3, r3, #1
 8000756:	b2da      	uxtb	r2, r3
 8000758:	793b      	ldrb	r3, [r7, #4]
 800075a:	f362 0382 	bfi	r3, r2, #2, #1
 800075e:	713b      	strb	r3, [r7, #4]
 8000760:	4b05      	ldr	r3, [pc, #20]	; (8000778 <SPI1_IRQHandler+0x58>)
 8000762:	681b      	ldr	r3, [r3, #0]
 8000764:	695b      	ldr	r3, [r3, #20]
 8000766:	7938      	ldrb	r0, [r7, #4]
 8000768:	4798      	blx	r3
 800076a:	bf00      	nop
 800076c:	3708      	adds	r7, #8
 800076e:	46bd      	mov	sp, r7
 8000770:	bd80      	pop	{r7, pc}
 8000772:	bf00      	nop
 8000774:	40013000 	andmi	r3, r1, r0
 8000778:	20000020 	andcs	r0, r0, r0, lsr #32

0800077c <SPI2_IRQHandler>:
 800077c:	b580      	push	{r7, lr}
 800077e:	b082      	sub	sp, #8
 8000780:	af00      	add	r7, sp, #0
 8000782:	4b13      	ldr	r3, [pc, #76]	; (80007d0 <SPI2_IRQHandler+0x54>)
 8000784:	689b      	ldr	r3, [r3, #8]
 8000786:	085b      	lsrs	r3, r3, #1
 8000788:	f003 0301 	and.w	r3, r3, #1
 800078c:	b2da      	uxtb	r2, r3
 800078e:	793b      	ldrb	r3, [r7, #4]
 8000790:	f362 0300 	bfi	r3, r2, #0, #1
 8000794:	713b      	strb	r3, [r7, #4]
 8000796:	4b0e      	ldr	r3, [pc, #56]	; (80007d0 <SPI2_IRQHandler+0x54>)
 8000798:	689b      	ldr	r3, [r3, #8]
 800079a:	f003 0301 	and.w	r3, r3, #1
 800079e:	b2da      	uxtb	r2, r3
 80007a0:	793b      	ldrb	r3, [r7, #4]
 80007a2:	f362 0341 	bfi	r3, r2, #1, #1
 80007a6:	713b      	strb	r3, [r7, #4]
 80007a8:	4b09      	ldr	r3, [pc, #36]	; (80007d0 <SPI2_IRQHandler+0x54>)
 80007aa:	689b      	ldr	r3, [r3, #8]
 80007ac:	091b      	lsrs	r3, r3, #4
 80007ae:	f003 0301 	and.w	r3, r3, #1
 80007b2:	b2da      	uxtb	r2, r3
 80007b4:	793b      	ldrb	r3, [r7, #4]
 80007b6:	f362 0382 	bfi	r3, r2, #2, #1
 80007ba:	713b      	strb	r3, [r7, #4]
 80007bc:	4b05      	ldr	r3, [pc, #20]	; (80007d4 <SPI2_IRQHandler+0x58>)
 80007be:	685b      	ldr	r3, [r3, #4]
 80007c0:	695b      	ldr	r3, [r3, #20]
 80007c2:	7938      	ldrb	r0, [r7, #4]
 80007c4:	4798      	blx	r3
 80007c6:	bf00      	nop
 80007c8:	3708      	adds	r7, #8
 80007ca:	46bd      	mov	sp, r7
 80007cc:	bd80      	pop	{r7, pc}
 80007ce:	bf00      	nop
 80007d0:	40003800 	andmi	r3, r0, r0, lsl #16
 80007d4:	20000020 	andcs	r0, r0, r0, lsr #32

080007d8 <USART1_IRQHandler>:
 80007d8:	b580      	push	{r7, lr}
 80007da:	af00      	add	r7, sp, #0
 80007dc:	4b02      	ldr	r3, [pc, #8]	; (80007e8 <USART1_IRQHandler+0x10>)
 80007de:	681b      	ldr	r3, [r3, #0]
 80007e0:	691b      	ldr	r3, [r3, #16]
 80007e2:	4798      	blx	r3
 80007e4:	bf00      	nop
 80007e6:	bd80      	pop	{r7, pc}
 80007e8:	20000028 	andcs	r0, r0, r8, lsr #32

080007ec <USART2_IRQHandler>:
 80007ec:	b580      	push	{r7, lr}
 80007ee:	af00      	add	r7, sp, #0
 80007f0:	4b02      	ldr	r3, [pc, #8]	; (80007fc <USART2_IRQHandler+0x10>)
 80007f2:	681b      	ldr	r3, [r3, #0]
 80007f4:	691b      	ldr	r3, [r3, #16]
 80007f6:	4798      	blx	r3
 80007f8:	bf00      	nop
 80007fa:	bd80      	pop	{r7, pc}
 80007fc:	20000028 	andcs	r0, r0, r8, lsr #32

08000800 <USART3_IRQHandler>:
 8000800:	b580      	push	{r7, lr}
 8000802:	af00      	add	r7, sp, #0
 8000804:	4b02      	ldr	r3, [pc, #8]	; (8000810 <USART3_IRQHandler+0x10>)
 8000806:	681b      	ldr	r3, [r3, #0]
 8000808:	691b      	ldr	r3, [r3, #16]
 800080a:	4798      	blx	r3
 800080c:	bf00      	nop
 800080e:	bd80      	pop	{r7, pc}
 8000810:	20000028 	andcs	r0, r0, r8, lsr #32

08000814 <Get_PinPostion>:
 8000814:	b480      	push	{r7}
 8000816:	b083      	sub	sp, #12
 8000818:	af00      	add	r7, sp, #0
 800081a:	4603      	mov	r3, r0
 800081c:	80fb      	strh	r3, [r7, #6]
 800081e:	88fb      	ldrh	r3, [r7, #6]
 8000820:	2b80      	cmp	r3, #128	; 0x80
 8000822:	d042      	beq.n	80008aa <Get_PinPostion+0x96>
 8000824:	2b80      	cmp	r3, #128	; 0x80
 8000826:	dc11      	bgt.n	800084c <Get_PinPostion+0x38>
 8000828:	2b08      	cmp	r3, #8
 800082a:	d036      	beq.n	800089a <Get_PinPostion+0x86>
 800082c:	2b08      	cmp	r3, #8
 800082e:	dc06      	bgt.n	800083e <Get_PinPostion+0x2a>
 8000830:	2b02      	cmp	r3, #2
 8000832:	d02e      	beq.n	8000892 <Get_PinPostion+0x7e>
 8000834:	2b04      	cmp	r3, #4
 8000836:	d02e      	beq.n	8000896 <Get_PinPostion+0x82>
 8000838:	2b01      	cmp	r3, #1
 800083a:	d028      	beq.n	800088e <Get_PinPostion+0x7a>
 800083c:	e037      	b.n	80008ae <Get_PinPostion+0x9a>
 800083e:	2b20      	cmp	r3, #32
 8000840:	d02f      	beq.n	80008a2 <Get_PinPostion+0x8e>
 8000842:	2b40      	cmp	r3, #64	; 0x40
 8000844:	d02f      	beq.n	80008a6 <Get_PinPostion+0x92>
 8000846:	2b10      	cmp	r3, #16
 8000848:	d029      	beq.n	800089e <Get_PinPostion+0x8a>
 800084a:	e030      	b.n	80008ae <Get_PinPostion+0x9a>
 800084c:	f5b3 6f00 	cmp.w	r3, #2048	; 0x800
 8000850:	d023      	beq.n	800089a <Get_PinPostion+0x86>
 8000852:	f5b3 6f00 	cmp.w	r3, #2048	; 0x800
 8000856:	dc09      	bgt.n	800086c <Get_PinPostion+0x58>
 8000858:	f5b3 7f00 	cmp.w	r3, #512	; 0x200
 800085c:	d019      	beq.n	8000892 <Get_PinPostion+0x7e>
 800085e:	f5b3 6f80 	cmp.w	r3, #1024	; 0x400
 8000862:	d018      	beq.n	8000896 <Get_PinPostion+0x82>
 8000864:	f5b3 7f80 	cmp.w	r3, #256	; 0x100
 8000868:	d011      	beq.n	800088e <Get_PinPostion+0x7a>
 800086a:	e020      	b.n	80008ae <Get_PinPostion+0x9a>
 800086c:	f5b3 5f00 	cmp.w	r3, #8192	; 0x2000
 8000870:	d017      	beq.n	80008a2 <Get_PinPostion+0x8e>
 8000872:	f5b3 5f00 	cmp.w	r3, #8192	; 0x2000
 8000876:	dc03      	bgt.n	8000880 <Get_PinPostion+0x6c>
 8000878:	f5b3 5f80 	cmp.w	r3, #4096	; 0x1000
 800087c:	d00f      	beq.n	800089e <Get_PinPostion+0x8a>
 800087e:	e016      	b.n	80008ae <Get_PinPostion+0x9a>
 8000880:	f5b3 4f80 	cmp.w	r3, #16384	; 0x4000
 8000884:	d00f      	beq.n	80008a6 <Get_PinPostion+0x92>
 8000886:	f5b3 4f00 	cmp.w	r3, #32768	; 0x8000
 800088a:	d00e      	beq.n	80008aa <Get_PinPostion+0x96>
 800088c:	e00f      	b.n	80008ae <Get_PinPostion+0x9a>
 800088e:	2300      	movs	r3, #0
 8000890:	e00e      	b.n	80008b0 <Get_PinPostion+0x9c>
 8000892:	2304      	movs	r3, #4
 8000894:	e00c      	b.n	80008b0 <Get_PinPostion+0x9c>
 8000896:	2308      	movs	r3, #8
 8000898:	e00a      	b.n	80008b0 <Get_PinPostion+0x9c>
 800089a:	230c      	movs	r3, #12
 800089c:	e008      	b.n	80008b0 <Get_PinPostion+0x9c>
 800089e:	2310      	movs	r3, #16
 80008a0:	e006      	b.n	80008b0 <Get_PinPostion+0x9c>
 80008a2:	2314      	movs	r3, #20
 80008a4:	e004      	b.n	80008b0 <Get_PinPostion+0x9c>
 80008a6:	2318      	movs	r3, #24
 80008a8:	e002      	b.n	80008b0 <Get_PinPostion+0x9c>
 80008aa:	231c      	movs	r3, #28
 80008ac:	e000      	b.n	80008b0 <Get_PinPostion+0x9c>
 80008ae:	2300      	movs	r3, #0
 80008b0:	4618      	mov	r0, r3
 80008b2:	370c      	adds	r7, #12
 80008b4:	46bd      	mov	sp, r7
 80008b6:	bc80      	pop	{r7}
 80008b8:	4770      	bx	lr

080008ba <GPIO_Init>:
 80008ba:	b590      	push	{r4, r7, lr}
 80008bc:	b085      	sub	sp, #20
 80008be:	af00      	add	r7, sp, #0
 80008c0:	6078      	str	r0, [r7, #4]
 80008c2:	6039      	str	r1, [r7, #0]
 80008c4:	2300      	movs	r3, #0
 80008c6:	60bb      	str	r3, [r7, #8]
 80008c8:	2300      	movs	r3, #0
 80008ca:	73fb      	strb	r3, [r7, #15]
 80008cc:	683b      	ldr	r3, [r7, #0]
 80008ce:	881b      	ldrh	r3, [r3, #0]
 80008d0:	2bff      	cmp	r3, #255	; 0xff
 80008d2:	d801      	bhi.n	80008d8 <GPIO_Init+0x1e>
 80008d4:	687b      	ldr	r3, [r7, #4]
 80008d6:	e001      	b.n	80008dc <GPIO_Init+0x22>
 80008d8:	687b      	ldr	r3, [r7, #4]
 80008da:	3304      	adds	r3, #4
 80008dc:	60bb      	str	r3, [r7, #8]
 80008de:	683b      	ldr	r3, [r7, #0]
 80008e0:	881b      	ldrh	r3, [r3, #0]
 80008e2:	4618      	mov	r0, r3
 80008e4:	f7ff ff96 	bl	8000814 <Get_PinPostion>
 80008e8:	4603      	mov	r3, r0
 80008ea:	461a      	mov	r2, r3
 80008ec:	230f      	movs	r3, #15
 80008ee:	4093      	lsls	r3, r2
 80008f0:	43da      	mvns	r2, r3
 80008f2:	68bb      	ldr	r3, [r7, #8]
 80008f4:	681b      	ldr	r3, [r3, #0]
 80008f6:	401a      	ands	r2, r3
 80008f8:	68bb      	ldr	r3, [r7, #8]
 80008fa:	601a      	str	r2, [r3, #0]
 80008fc:	683b      	ldr	r3, [r7, #0]
 80008fe:	885b      	ldrh	r3, [r3, #2]
 8000900:	2b04      	cmp	r3, #4
 8000902:	d00b      	beq.n	800091c <GPIO_Init+0x62>
 8000904:	683b      	ldr	r3, [r7, #0]
 8000906:	885b      	ldrh	r3, [r3, #2]
 8000908:	2b05      	cmp	r3, #5
 800090a:	d007      	beq.n	800091c <GPIO_Init+0x62>
 800090c:	683b      	ldr	r3, [r7, #0]
 800090e:	885b      	ldrh	r3, [r3, #2]
 8000910:	2b06      	cmp	r3, #6
 8000912:	d003      	beq.n	800091c <GPIO_Init+0x62>
 8000914:	683b      	ldr	r3, [r7, #0]
 8000916:	885b      	ldrh	r3, [r3, #2]
 8000918:	2b07      	cmp	r3, #7
 800091a:	d11c      	bne.n	8000956 <GPIO_Init+0x9c>
 800091c:	683b      	ldr	r3, [r7, #0]
 800091e:	885b      	ldrh	r3, [r3, #2]
 8000920:	3b04      	subs	r3, #4
 8000922:	009b      	lsls	r3, r3, #2
 8000924:	b25a      	sxtb	r2, r3
 8000926:	683b      	ldr	r3, [r7, #0]
 8000928:	889b      	ldrh	r3, [r3, #4]
 800092a:	b25b      	sxtb	r3, r3
 800092c:	4313      	orrs	r3, r2
 800092e:	b25b      	sxtb	r3, r3
 8000930:	b2db      	uxtb	r3, r3
 8000932:	f003 030f 	and.w	r3, r3, #15
 8000936:	73fb      	strb	r3, [r7, #15]
 8000938:	7bfc      	ldrb	r4, [r7, #15]
 800093a:	683b      	ldr	r3, [r7, #0]
 800093c:	881b      	ldrh	r3, [r3, #0]
 800093e:	4618      	mov	r0, r3
 8000940:	f7ff ff68 	bl	8000814 <Get_PinPostion>
 8000944:	4603      	mov	r3, r0
 8000946:	fa04 f203 	lsl.w	r2, r4, r3
 800094a:	68bb      	ldr	r3, [r7, #8]
 800094c:	681b      	ldr	r3, [r3, #0]
 800094e:	431a      	orrs	r2, r3
 8000950:	68bb      	ldr	r3, [r7, #8]
 8000952:	601a      	str	r2, [r3, #0]
 8000954:	e071      	b.n	8000a3a <GPIO_Init+0x180>
 8000956:	683b      	ldr	r3, [r7, #0]
 8000958:	885b      	ldrh	r3, [r3, #2]
 800095a:	2b01      	cmp	r3, #1
 800095c:	d003      	beq.n	8000966 <GPIO_Init+0xac>
 800095e:	683b      	ldr	r3, [r7, #0]
 8000960:	885b      	ldrh	r3, [r3, #2]
 8000962:	2b00      	cmp	r3, #0
 8000964:	d115      	bne.n	8000992 <GPIO_Init+0xd8>
 8000966:	683b      	ldr	r3, [r7, #0]
 8000968:	885b      	ldrh	r3, [r3, #2]
 800096a:	009b      	lsls	r3, r3, #2
 800096c:	b2db      	uxtb	r3, r3
 800096e:	f003 030f 	and.w	r3, r3, #15
 8000972:	73fb      	strb	r3, [r7, #15]
 8000974:	7bfc      	ldrb	r4, [r7, #15]
 8000976:	683b      	ldr	r3, [r7, #0]
 8000978:	881b      	ldrh	r3, [r3, #0]
 800097a:	4618      	mov	r0, r3
 800097c:	f7ff ff4a 	bl	8000814 <Get_PinPostion>
 8000980:	4603      	mov	r3, r0
 8000982:	fa04 f203 	lsl.w	r2, r4, r3
 8000986:	68bb      	ldr	r3, [r7, #8]
 8000988:	681b      	ldr	r3, [r3, #0]
 800098a:	431a      	orrs	r2, r3
 800098c:	68bb      	ldr	r3, [r7, #8]
 800098e:	601a      	str	r2, [r3, #0]
 8000990:	e053      	b.n	8000a3a <GPIO_Init+0x180>
 8000992:	683b      	ldr	r3, [r7, #0]
 8000994:	885b      	ldrh	r3, [r3, #2]
 8000996:	2b02      	cmp	r3, #2
 8000998:	d003      	beq.n	80009a2 <GPIO_Init+0xe8>
 800099a:	683b      	ldr	r3, [r7, #0]
 800099c:	885b      	ldrh	r3, [r3, #2]
 800099e:	2b03      	cmp	r3, #3
 80009a0:	d135      	bne.n	8000a0e <GPIO_Init+0x154>
 80009a2:	683b      	ldr	r3, [r7, #0]
 80009a4:	885b      	ldrh	r3, [r3, #2]
 80009a6:	2b02      	cmp	r3, #2
 80009a8:	d002      	beq.n	80009b0 <GPIO_Init+0xf6>
 80009aa:	2b03      	cmp	r3, #3
 80009ac:	d00f      	beq.n	80009ce <GPIO_Init+0x114>
 80009ae:	e01f      	b.n	80009f0 <GPIO_Init+0x136>
 80009b0:	687b      	ldr	r3, [r7, #4]
 80009b2:	68db      	ldr	r3, [r3, #12]
 80009b4:	683a      	ldr	r2, [r7, #0]
 80009b6:	8812      	ldrh	r2, [r2, #0]
 80009b8:	431a      	orrs	r2, r3
 80009ba:	687b      	ldr	r3, [r7, #4]
 80009bc:	60da      	str	r2, [r3, #12]
 80009be:	683b      	ldr	r3, [r7, #0]
 80009c0:	885b      	ldrh	r3, [r3, #2]
 80009c2:	009b      	lsls	r3, r3, #2
 80009c4:	b2db      	uxtb	r3, r3
 80009c6:	f003 030f 	and.w	r3, r3, #15
 80009ca:	73fb      	strb	r3, [r7, #15]
 80009cc:	e010      	b.n	80009f0 <GPIO_Init+0x136>
 80009ce:	687b      	ldr	r3, [r7, #4]
 80009d0:	68db      	ldr	r3, [r3, #12]
 80009d2:	683a      	ldr	r2, [r7, #0]
 80009d4:	8812      	ldrh	r2, [r2, #0]
 80009d6:	43d2      	mvns	r2, r2
 80009d8:	401a      	ands	r2, r3
 80009da:	687b      	ldr	r3, [r7, #4]
 80009dc:	60da      	str	r2, [r3, #12]
 80009de:	683b      	ldr	r3, [r7, #0]
 80009e0:	885b      	ldrh	r3, [r3, #2]
 80009e2:	3b01      	subs	r3, #1
 80009e4:	009b      	lsls	r3, r3, #2
 80009e6:	b2db      	uxtb	r3, r3
 80009e8:	f003 030f 	and.w	r3, r3, #15
 80009ec:	73fb      	strb	r3, [r7, #15]
 80009ee:	bf00      	nop
 80009f0:	7bfc      	ldrb	r4, [r7, #15]
 80009f2:	683b      	ldr	r3, [r7, #0]
 80009f4:	881b      	ldrh	r3, [r3, #0]
 80009f6:	4618      	mov	r0, r3
 80009f8:	f7ff ff0c 	bl	8000814 <Get_PinPostion>
 80009fc:	4603      	mov	r3, r0
 80009fe:	fa04 f203 	lsl.w	r2, r4, r3
 8000a02:	68bb      	ldr	r3, [r7, #8]
 8000a04:	681b      	ldr	r3, [r3, #0]
 8000a06:	431a      	orrs	r2, r3
 8000a08:	68bb      	ldr	r3, [r7, #8]
 8000a0a:	601a      	str	r2, [r3, #0]
 8000a0c:	e015      	b.n	8000a3a <GPIO_Init+0x180>
 8000a0e:	683b      	ldr	r3, [r7, #0]
 8000a10:	885b      	ldrh	r3, [r3, #2]
 8000a12:	3b07      	subs	r3, #7
 8000a14:	009b      	lsls	r3, r3, #2
 8000a16:	b2db      	uxtb	r3, r3
 8000a18:	f003 030f 	and.w	r3, r3, #15
 8000a1c:	73fb      	strb	r3, [r7, #15]
 8000a1e:	7bfc      	ldrb	r4, [r7, #15]
 8000a20:	683b      	ldr	r3, [r7, #0]
 8000a22:	881b      	ldrh	r3, [r3, #0]
 8000a24:	4618      	mov	r0, r3
 8000a26:	f7ff fef5 	bl	8000814 <Get_PinPostion>
 8000a2a:	4603      	mov	r3, r0
 8000a2c:	fa04 f203 	lsl.w	r2, r4, r3
 8000a30:	68bb      	ldr	r3, [r7, #8]
 8000a32:	681b      	ldr	r3, [r3, #0]
 8000a34:	431a      	orrs	r2, r3
 8000a36:	68bb      	ldr	r3, [r7, #8]
 8000a38:	601a      	str	r2, [r3, #0]
 8000a3a:	bf00      	nop
 8000a3c:	3714      	adds	r7, #20
 8000a3e:	46bd      	mov	sp, r7
 8000a40:	bd90      	pop	{r4, r7, pc}

08000a42 <SVC_Handler>:
 8000a42:	b480      	push	{r7}
 8000a44:	af00      	add	r7, sp, #0
 8000a46:	f3ef 8314 	mrs	r3, CONTROL
 8000a4a:	ea4f 0353 	mov.w	r3, r3, lsr #1
 8000a4e:	ea4f 0343 	mov.w	r3, r3, lsl #1
 8000a52:	f383 8814 	msr	CONTROL, r3
 8000a56:	bf00      	nop
 8000a58:	46bd      	mov	sp, r7
 8000a5a:	bc80      	pop	{r7}
 8000a5c:	4770      	bx	lr
	...

08000a60 <EXTI9_CALLBACK>:
 8000a60:	b480      	push	{r7}
 8000a62:	af00      	add	r7, sp, #0
 8000a64:	4b0c      	ldr	r3, [pc, #48]	; (8000a98 <EXTI9_CALLBACK+0x38>)
 8000a66:	781b      	ldrb	r3, [r3, #0]
 8000a68:	2b00      	cmp	r3, #0
 8000a6a:	d106      	bne.n	8000a7a <EXTI9_CALLBACK+0x1a>
 8000a6c:	4b0b      	ldr	r3, [pc, #44]	; (8000a9c <EXTI9_CALLBACK+0x3c>)
 8000a6e:	2201      	movs	r2, #1
 8000a70:	701a      	strb	r2, [r3, #0]
 8000a72:	4b09      	ldr	r3, [pc, #36]	; (8000a98 <EXTI9_CALLBACK+0x38>)
 8000a74:	2201      	movs	r2, #1
 8000a76:	701a      	strb	r2, [r3, #0]
 8000a78:	e009      	b.n	8000a8e <EXTI9_CALLBACK+0x2e>
 8000a7a:	4b07      	ldr	r3, [pc, #28]	; (8000a98 <EXTI9_CALLBACK+0x38>)
 8000a7c:	781b      	ldrb	r3, [r3, #0]
 8000a7e:	2b01      	cmp	r3, #1
 8000a80:	d105      	bne.n	8000a8e <EXTI9_CALLBACK+0x2e>
 8000a82:	4b07      	ldr	r3, [pc, #28]	; (8000aa0 <EXTI9_CALLBACK+0x40>)
 8000a84:	2201      	movs	r2, #1
 8000a86:	701a      	strb	r2, [r3, #0]
 8000a88:	4b03      	ldr	r3, [pc, #12]	; (8000a98 <EXTI9_CALLBACK+0x38>)
 8000a8a:	2200      	movs	r2, #0
 8000a8c:	701a      	strb	r2, [r3, #0]
 8000a8e:	bf00      	nop
 8000a90:	46bd      	mov	sp, r7
 8000a92:	bc80      	pop	{r7}
 8000a94:	4770      	bx	lr
 8000a96:	bf00      	nop
 8000a98:	2000002c 	andcs	r0, r0, ip, lsr #32
 8000a9c:	2000007c 	andcs	r0, r0, ip, ror r0
 8000aa0:	20000074 	andcs	r0, r0, r4, ror r0

08000aa4 <TaskA>:
 8000aa4:	b480      	push	{r7}
 8000aa6:	b085      	sub	sp, #20
 8000aa8:	af00      	add	r7, sp, #0
 8000aaa:	60f8      	str	r0, [r7, #12]
 8000aac:	60b9      	str	r1, [r7, #8]
 8000aae:	607a      	str	r2, [r7, #4]
 8000ab0:	68fa      	ldr	r2, [r7, #12]
 8000ab2:	68bb      	ldr	r3, [r7, #8]
 8000ab4:	441a      	add	r2, r3
 8000ab6:	687b      	ldr	r3, [r7, #4]
 8000ab8:	4413      	add	r3, r2
 8000aba:	4618      	mov	r0, r3
 8000abc:	3714      	adds	r7, #20
 8000abe:	46bd      	mov	sp, r7
 8000ac0:	bc80      	pop	{r7}
 8000ac2:	4770      	bx	lr

08000ac4 <TaskB>:
 8000ac4:	b480      	push	{r7}
 8000ac6:	b085      	sub	sp, #20
 8000ac8:	af00      	add	r7, sp, #0
 8000aca:	60f8      	str	r0, [r7, #12]
 8000acc:	60b9      	str	r1, [r7, #8]
 8000ace:	607a      	str	r2, [r7, #4]
 8000ad0:	603b      	str	r3, [r7, #0]
 8000ad2:	68fa      	ldr	r2, [r7, #12]
 8000ad4:	68bb      	ldr	r3, [r7, #8]
 8000ad6:	441a      	add	r2, r3
 8000ad8:	687b      	ldr	r3, [r7, #4]
 8000ada:	4413      	add	r3, r2
 8000adc:	4618      	mov	r0, r3
 8000ade:	3714      	adds	r7, #20
 8000ae0:	46bd      	mov	sp, r7
 8000ae2:	bc80      	pop	{r7}
 8000ae4:	4770      	bx	lr
	...

08000ae8 <MainOs>:
 8000ae8:	b580      	push	{r7, lr}
 8000aea:	af00      	add	r7, sp, #0
 8000aec:	4b33      	ldr	r3, [pc, #204]	; (8000bbc <MainOs+0xd4>)
 8000aee:	681b      	ldr	r3, [r3, #0]
 8000af0:	f5a3 7300 	sub.w	r3, r3, #512	; 0x200
 8000af4:	4a32      	ldr	r2, [pc, #200]	; (8000bc0 <MainOs+0xd8>)
 8000af6:	6013      	str	r3, [r2, #0]
 8000af8:	4b31      	ldr	r3, [pc, #196]	; (8000bc0 <MainOs+0xd8>)
 8000afa:	681b      	ldr	r3, [r3, #0]
 8000afc:	3b08      	subs	r3, #8
 8000afe:	4a31      	ldr	r2, [pc, #196]	; (8000bc4 <MainOs+0xdc>)
 8000b00:	6013      	str	r3, [r2, #0]
 8000b02:	4b30      	ldr	r3, [pc, #192]	; (8000bc4 <MainOs+0xdc>)
 8000b04:	681b      	ldr	r3, [r3, #0]
 8000b06:	3b64      	subs	r3, #100	; 0x64
 8000b08:	4a2f      	ldr	r2, [pc, #188]	; (8000bc8 <MainOs+0xe0>)
 8000b0a:	6013      	str	r3, [r2, #0]
 8000b0c:	4b2e      	ldr	r3, [pc, #184]	; (8000bc8 <MainOs+0xe0>)
 8000b0e:	681b      	ldr	r3, [r3, #0]
 8000b10:	3b08      	subs	r3, #8
 8000b12:	4a2e      	ldr	r2, [pc, #184]	; (8000bcc <MainOs+0xe4>)
 8000b14:	6013      	str	r3, [r2, #0]
 8000b16:	4b2d      	ldr	r3, [pc, #180]	; (8000bcc <MainOs+0xe4>)
 8000b18:	681b      	ldr	r3, [r3, #0]
 8000b1a:	3b64      	subs	r3, #100	; 0x64
 8000b1c:	4a2c      	ldr	r2, [pc, #176]	; (8000bd0 <MainOs+0xe8>)
 8000b1e:	6013      	str	r3, [r2, #0]
 8000b20:	bf00      	nop
 8000b22:	4b2c      	ldr	r3, [pc, #176]	; (8000bd4 <MainOs+0xec>)
 8000b24:	781b      	ldrb	r3, [r3, #0]
 8000b26:	2b01      	cmp	r3, #1
 8000b28:	d121      	bne.n	8000b6e <MainOs+0x86>
 8000b2a:	4b26      	ldr	r3, [pc, #152]	; (8000bc4 <MainOs+0xdc>)
 8000b2c:	681b      	ldr	r3, [r3, #0]
 8000b2e:	4618      	mov	r0, r3
 8000b30:	f380 8809 	msr	PSP, r0
 8000b34:	f3ef 8114 	mrs	r1, CONTROL
 8000b38:	f041 0102 	orr.w	r1, r1, #2
 8000b3c:	f381 8814 	msr	CONTROL, r1
 8000b40:	f3ef 8314 	mrs	r3, CONTROL
 8000b44:	f043 0301 	orr.w	r3, r3, #1
 8000b48:	f383 8814 	msr	CONTROL, r3
 8000b4c:	2203      	movs	r2, #3
 8000b4e:	2102      	movs	r1, #2
 8000b50:	2001      	movs	r0, #1
 8000b52:	f7ff ffa7 	bl	8000aa4 <TaskA>
 8000b56:	4603      	mov	r3, r0
 8000b58:	b2da      	uxtb	r2, r3
 8000b5a:	4b1e      	ldr	r3, [pc, #120]	; (8000bd4 <MainOs+0xec>)
 8000b5c:	701a      	strb	r2, [r3, #0]
 8000b5e:	df03      	svc	3
 8000b60:	f3ef 8114 	mrs	r1, CONTROL
 8000b64:	f001 0105 	and.w	r1, r1, #5
 8000b68:	f381 8814 	msr	CONTROL, r1
 8000b6c:	e7d8      	b.n	8000b20 <MainOs+0x38>
 8000b6e:	4b1a      	ldr	r3, [pc, #104]	; (8000bd8 <MainOs+0xf0>)
 8000b70:	781b      	ldrb	r3, [r3, #0]
 8000b72:	2b01      	cmp	r3, #1
 8000b74:	d1d4      	bne.n	8000b20 <MainOs+0x38>
 8000b76:	4b15      	ldr	r3, [pc, #84]	; (8000bcc <MainOs+0xe4>)
 8000b78:	681b      	ldr	r3, [r3, #0]
 8000b7a:	4618      	mov	r0, r3
 8000b7c:	f380 8809 	msr	PSP, r0
 8000b80:	f3ef 8114 	mrs	r1, CONTROL
 8000b84:	f041 0102 	orr.w	r1, r1, #2
 8000b88:	f381 8814 	msr	CONTROL, r1
 8000b8c:	f3ef 8314 	mrs	r3, CONTROL
 8000b90:	f043 0301 	orr.w	r3, r3, #1
 8000b94:	f383 8814 	msr	CONTROL, r3
 8000b98:	2304      	movs	r3, #4
 8000b9a:	2203      	movs	r2, #3
 8000b9c:	2102      	movs	r1, #2
 8000b9e:	2001      	movs	r0, #1
 8000ba0:	f7ff ff90 	bl	8000ac4 <TaskB>
 8000ba4:	4603      	mov	r3, r0
 8000ba6:	b2da      	uxtb	r2, r3
 8000ba8:	4b0b      	ldr	r3, [pc, #44]	; (8000bd8 <MainOs+0xf0>)
 8000baa:	701a      	strb	r2, [r3, #0]
 8000bac:	df03      	svc	3
 8000bae:	f3ef 8114 	mrs	r1, CONTROL
 8000bb2:	f001 0105 	and.w	r1, r1, #5
 8000bb6:	f381 8814 	msr	CONTROL, r1
 8000bba:	e7b1      	b.n	8000b20 <MainOs+0x38>
 8000bbc:	20000000 	andcs	r0, r0, r0
 8000bc0:	2000006c 	andcs	r0, r0, ip, rrx
 8000bc4:	20000070 	andcs	r0, r0, r0, ror r0
 8000bc8:	20000084 	andcs	r0, r0, r4, lsl #1
 8000bcc:	20000078 	andcs	r0, r0, r8, ror r0
 8000bd0:	20000080 	andcs	r0, r0, r0, lsl #1
 8000bd4:	2000007c 	andcs	r0, r0, ip, ror r0
 8000bd8:	20000074 	andcs	r0, r0, r4, ror r0

08000bdc <main>:
 8000bdc:	b580      	push	{r7, lr}
 8000bde:	b086      	sub	sp, #24
 8000be0:	af00      	add	r7, sp, #0
 8000be2:	4b14      	ldr	r3, [pc, #80]	; (8000c34 <main+0x58>)
 8000be4:	699b      	ldr	r3, [r3, #24]
 8000be6:	4a13      	ldr	r2, [pc, #76]	; (8000c34 <main+0x58>)
 8000be8:	f043 0308 	orr.w	r3, r3, #8
 8000bec:	6193      	str	r3, [r2, #24]
 8000bee:	4b11      	ldr	r3, [pc, #68]	; (8000c34 <main+0x58>)
 8000bf0:	699b      	ldr	r3, [r3, #24]
 8000bf2:	4a10      	ldr	r2, [pc, #64]	; (8000c34 <main+0x58>)
 8000bf4:	f043 0301 	orr.w	r3, r3, #1
 8000bf8:	6193      	str	r3, [r2, #24]
 8000bfa:	4a0f      	ldr	r2, [pc, #60]	; (8000c38 <main+0x5c>)
 8000bfc:	1d3b      	adds	r3, r7, #4
 8000bfe:	ca07      	ldmia	r2, {r0, r1, r2}
 8000c00:	e883 0007 	stmia.w	r3, {r0, r1, r2}
 8000c04:	2300      	movs	r3, #0
 8000c06:	743b      	strb	r3, [r7, #16]
 8000c08:	4b0c      	ldr	r3, [pc, #48]	; (8000c3c <main+0x60>)
 8000c0a:	617b      	str	r3, [r7, #20]
 8000c0c:	2301      	movs	r3, #1
 8000c0e:	747b      	strb	r3, [r7, #17]
 8000c10:	1d3b      	adds	r3, r7, #4
 8000c12:	4618      	mov	r0, r3
 8000c14:	f7ff faac 	bl	8000170 <EXTI_Init>
 8000c18:	f7ff ff66 	bl	8000ae8 <MainOs>
 8000c1c:	4b08      	ldr	r3, [pc, #32]	; (8000c40 <main+0x64>)
 8000c1e:	2201      	movs	r2, #1
 8000c20:	701a      	strb	r2, [r3, #0]
 8000c22:	4b07      	ldr	r3, [pc, #28]	; (8000c40 <main+0x64>)
 8000c24:	781b      	ldrb	r3, [r3, #0]
 8000c26:	2b00      	cmp	r3, #0
 8000c28:	d0fb      	beq.n	8000c22 <main+0x46>
 8000c2a:	4b05      	ldr	r3, [pc, #20]	; (8000c40 <main+0x64>)
 8000c2c:	2200      	movs	r2, #0
 8000c2e:	701a      	strb	r2, [r3, #0]
 8000c30:	e7f7      	b.n	8000c22 <main+0x46>
 8000c32:	bf00      	nop
 8000c34:	40021000 	andmi	r1, r2, r0
 8000c38:	08000cf8 	stmdaeq	r0, {r3, r4, r5, r6, r7, sl, fp}
 8000c3c:	08000a61 	stmdaeq	r0, {r0, r5, r6, r9, fp}
 8000c40:	2000002c 	andcs	r0, r0, ip, lsr #32

08000c44 <Reset_Handler>:
 8000c44:	480d      	ldr	r0, [pc, #52]	; (8000c7c <LoopForever+0x2>)
 8000c46:	4685      	mov	sp, r0
 8000c48:	f3af 8000 	nop.w
 8000c4c:	480c      	ldr	r0, [pc, #48]	; (8000c80 <LoopForever+0x6>)
 8000c4e:	490d      	ldr	r1, [pc, #52]	; (8000c84 <LoopForever+0xa>)
 8000c50:	4a0d      	ldr	r2, [pc, #52]	; (8000c88 <LoopForever+0xe>)
 8000c52:	2300      	movs	r3, #0
 8000c54:	e002      	b.n	8000c5c <LoopCopyDataInit>

08000c56 <CopyDataInit>:
 8000c56:	58d4      	ldr	r4, [r2, r3]
 8000c58:	50c4      	str	r4, [r0, r3]
 8000c5a:	3304      	adds	r3, #4

08000c5c <LoopCopyDataInit>:
 8000c5c:	18c4      	adds	r4, r0, r3
 8000c5e:	428c      	cmp	r4, r1
 8000c60:	d3f9      	bcc.n	8000c56 <CopyDataInit>
 8000c62:	4a0a      	ldr	r2, [pc, #40]	; (8000c8c <LoopForever+0x12>)
 8000c64:	4c0a      	ldr	r4, [pc, #40]	; (8000c90 <LoopForever+0x16>)
 8000c66:	2300      	movs	r3, #0
 8000c68:	e001      	b.n	8000c6e <LoopFillZerobss>

08000c6a <FillZerobss>:
 8000c6a:	6013      	str	r3, [r2, #0]
 8000c6c:	3204      	adds	r2, #4

08000c6e <LoopFillZerobss>:
 8000c6e:	42a2      	cmp	r2, r4
 8000c70:	d3fb      	bcc.n	8000c6a <FillZerobss>
 8000c72:	f000 f811 	bl	8000c98 <__libc_init_array>
 8000c76:	f7ff ffb1 	bl	8000bdc <main>

08000c7a <LoopForever>:
 8000c7a:	e7fe      	b.n	8000c7a <LoopForever>
 8000c7c:	20005000 	andcs	r5, r0, r0
 8000c80:	20000000 	andcs	r0, r0, r0
 8000c84:	20000004 	andcs	r0, r0, r4
 8000c88:	08000d0c 	stmdaeq	r0, {r2, r3, r8, sl, fp}
 8000c8c:	20000004 	andcs	r0, r0, r4
 8000c90:	20000088 	andcs	r0, r0, r8, lsl #1

08000c94 <ADC1_2_IRQHandler>:
 8000c94:	e7fe      	b.n	8000c94 <ADC1_2_IRQHandler>
	...

08000c98 <__libc_init_array>:
 8000c98:	b570      	push	{r4, r5, r6, lr}
 8000c9a:	2500      	movs	r5, #0
 8000c9c:	4e0c      	ldr	r6, [pc, #48]	; (8000cd0 <__libc_init_array+0x38>)
 8000c9e:	4c0d      	ldr	r4, [pc, #52]	; (8000cd4 <__libc_init_array+0x3c>)
 8000ca0:	1ba4      	subs	r4, r4, r6
 8000ca2:	10a4      	asrs	r4, r4, #2
 8000ca4:	42a5      	cmp	r5, r4
 8000ca6:	d109      	bne.n	8000cbc <__libc_init_array+0x24>
 8000ca8:	f000 f81a 	bl	8000ce0 <_init>
 8000cac:	2500      	movs	r5, #0
 8000cae:	4e0a      	ldr	r6, [pc, #40]	; (8000cd8 <__libc_init_array+0x40>)
 8000cb0:	4c0a      	ldr	r4, [pc, #40]	; (8000cdc <__libc_init_array+0x44>)
 8000cb2:	1ba4      	subs	r4, r4, r6
 8000cb4:	10a4      	asrs	r4, r4, #2
 8000cb6:	42a5      	cmp	r5, r4
 8000cb8:	d105      	bne.n	8000cc6 <__libc_init_array+0x2e>
 8000cba:	bd70      	pop	{r4, r5, r6, pc}
 8000cbc:	f856 3025 	ldr.w	r3, [r6, r5, lsl #2]
 8000cc0:	4798      	blx	r3
 8000cc2:	3501      	adds	r5, #1
 8000cc4:	e7ee      	b.n	8000ca4 <__libc_init_array+0xc>
 8000cc6:	f856 3025 	ldr.w	r3, [r6, r5, lsl #2]
 8000cca:	4798      	blx	r3
 8000ccc:	3501      	adds	r5, #1
 8000cce:	e7f2      	b.n	8000cb6 <__libc_init_array+0x1e>
 8000cd0:	08000d04 	stmdaeq	r0, {r2, r8, sl, fp}
 8000cd4:	08000d04 	stmdaeq	r0, {r2, r8, sl, fp}
 8000cd8:	08000d04 	stmdaeq	r0, {r2, r8, sl, fp}
 8000cdc:	08000d08 	stmdaeq	r0, {r3, r8, sl, fp}

08000ce0 <_init>:
 8000ce0:	b5f8      	push	{r3, r4, r5, r6, r7, lr}
 8000ce2:	bf00      	nop
 8000ce4:	bcf8      	pop	{r3, r4, r5, r6, r7}
 8000ce6:	bc08      	pop	{r3}
 8000ce8:	469e      	mov	lr, r3
 8000cea:	4770      	bx	lr

08000cec <_fini>:
 8000cec:	b5f8      	push	{r3, r4, r5, r6, r7, lr}
 8000cee:	bf00      	nop
 8000cf0:	bcf8      	pop	{r3, r4, r5, r6, r7}
 8000cf2:	bc08      	pop	{r3}
 8000cf4:	469e      	mov	lr, r3
 8000cf6:	4770      	bx	lr
